/*
 * Intel ACPI Component Architecture
 * AML/ASL+ Disassembler version 20251212 (64-bit version)
 * Copyright (c) 2000 - 2025 Intel Corporation
 * 
 * Disassembly of bgrt.dat
 *
 * ACPI Data Table [BGRT]
 *
 * Format: [HexOffset DecimalOffset ByteLength]  FieldName : FieldValue (in hex)
 */

[000h 0000 004h]                   Signature : "BGRT"    [Boot Graphics Resource Table]
[004h 0004 004h]                Table Length : 00000038
[008h 0008 001h]                    Revision : 01
[009h 0009 001h]                    Checksum : 01
[00Ah 0010 006h]                      Oem ID : "INTEL "
[010h 0016 008h]                Oem Table ID : "EDK2    "
[018h 0024 004h]                Oem Revision : 00000002
[01Ch 0028 004h]             Asl Compiler ID : "    "
[020h 0032 004h]       Asl Compiler Revision : 01000013

[024h 0036 002h]                     Version : 0001
[026h 0038 001h]      Status (decoded below) : 01
                                   Displayed : 1
                          Orientation Offset : 0
[027h 0039 001h]                  Image Type : 00
[028h 0040 008h]               Image Address : 000000000E55B018
[030h 0048 004h]               Image OffsetX : 000000DF
[034h 0052 004h]               Image OffsetY : 000000D3

Raw Table Data: Length 56 (0x38)

    0000: 42 47 52 54 38 00 00 00 01 01 49 4E 54 45 4C 20  // BGRT8.....INTEL 
    0010: 45 44 4B 32 20 20 20 20 02 00 00 00 20 20 20 20  // EDK2    ....    
    0020: 13 00 00 01 01 00 01 00 18 B0 55 0E 00 00 00 00  // ..........U.....
    0030: DF 00 00 00 D3 00 00 00                          // ........
